; Function Attrs: nounwind uwtable
define internal noundef i32 @outline_conic_to_cb(ptr noundef readonly captures(address_is_null) %0, ptr noundef readonly captures(address_is_null) %1, ptr noundef %2) #0 {
  %4 = alloca %struct._lv_event_t, align 8
  %5 = alloca %struct._lv_freetype_outline_event_param_t, align 8
  %6 = tail call ptr @lv_freetype_get_context() #9
  call void @llvm.lifetime.start.p0(i64 48, ptr nonnull %5) #9
  call void @lv_memset(ptr noundef nonnull %5, i8 noundef zeroext 0, i64 noundef 48) #9
  store ptr %2, ptr %5, align 8, !tbaa !67
  %7 = getelementptr inbounds nuw i8, ptr %5, i64 8
  store i32 4, ptr %7, align 8, !tbaa !82
  %8 = getelementptr inbounds nuw i8, ptr %5, i64 20
  %.not.i.i = icmp eq ptr %0, null
  br i1 %.not.i.i, label %ft_vector_to_lv_vector.exit.i, label %9

9:                                                ; preds = %3
  %10 = load i64, ptr %0, align 8, !tbaa !83
  %11 = trunc i64 %10 to i32
  %12 = getelementptr inbounds nuw i8, ptr %0, i64 8
  %13 = load i64, ptr %12, align 8, !tbaa !84
  %14 = trunc i64 %13 to i32
  br label %ft_vector_to_lv_vector.exit.i

ft_vector_to_lv_vector.exit.i:                    ; preds = %9, %3
  %.sink.i.i = phi i32 [ %11, %9 ], [ 0, %3 ]
  %15 = phi i32 [ %14, %9 ], [ 0, %3 ]
  store i32 %.sink.i.i, ptr %8, align 4, !tbaa !85
  %16 = getelementptr inbounds nuw i8, ptr %5, i64 24
  store i32 %15, ptr %16, align 8, !tbaa !86
  %17 = getelementptr inbounds nuw i8, ptr %5, i64 28
  store i32 0, ptr %17, align 4, !tbaa !85
  %18 = getelementptr inbounds nuw i8, ptr %5, i64 32
  store i32 0, ptr %18, align 8, !tbaa !86
  %19 = getelementptr inbounds nuw i8, ptr %5, i64 12
  %.not.i8.i = icmp eq ptr %1, null
  br i1 %.not.i8.i, label %ft_vector_to_lv_vector.exit10.i, label %20

20:                                               ; preds = %ft_vector_to_lv_vector.exit.i
  %21 = load i64, ptr %1, align 8, !tbaa !83
  %22 = trunc i64 %21 to i32
  %23 = getelementptr inbounds nuw i8, ptr %1, i64 8
  %24 = load i64, ptr %23, align 8, !tbaa !84
  %25 = trunc i64 %24 to i32
  br label %ft_vector_to_lv_vector.exit10.i

ft_vector_to_lv_vector.exit10.i:                  ; preds = %20, %ft_vector_to_lv_vector.exit.i
  %.sink.i9.i = phi i32 [ %22, %20 ], [ 0, %ft_vector_to_lv_vector.exit.i ]
  %26 = phi i32 [ %25, %20 ], [ 0, %ft_vector_to_lv_vector.exit.i ]
  store i32 %.sink.i9.i, ptr %19, align 4, !tbaa !85
  %27 = getelementptr inbounds nuw i8, ptr %5, i64 16
  store i32 %26, ptr %27, align 8, !tbaa !86
  %28 = getelementptr inbounds nuw i8, ptr %6, i64 32
  %29 = load ptr, ptr %28, align 8, !tbaa !59
  %.not.i11.i = icmp eq ptr %29, null
  br i1 %.not.i11.i, label %outline_push_point.exit, label %30

30:                                               ; preds = %ft_vector_to_lv_vector.exit10.i
  call void @llvm.lifetime.start.p0(i64 56, ptr nonnull %4) #9
  call void @lv_memset(ptr noundef nonnull %4, i8 noundef zeroext 0, i64 noundef 56) #9
  %31 = getelementptr inbounds nuw i8, ptr %4, i64 16
  store i32 36, ptr %31, align 8, !tbaa !62
  %32 = getelementptr inbounds nuw i8, ptr %4, i64 32
  store ptr %5, ptr %32, align 8, !tbaa !65
  %33 = getelementptr inbounds nuw i8, ptr %4, i64 24
  store ptr null, ptr %33, align 8, !tbaa !66
  %34 = load ptr, ptr %28, align 8, !tbaa !59
  call void %34(ptr noundef nonnull %4) #9
  call void @llvm.lifetime.end.p0(i64 56, ptr nonnull %4) #9
  br label %outline_push_point.exit

outline_push_point.exit:                          ; preds = %ft_vector_to_lv_vector.exit10.i, %30
  call void @llvm.lifetime.end.p0(i64 48, ptr nonnull %5) #9
  ret i32 0
}